; ModuleID = '14/1409.c'
source_filename = "14/1409.c"
target datalayout = "e-m:e-p270:32:32-p271:32:32-p272:64:64-i64:64-f80:128-n8:16:32:64-S128"
target triple = "x86_64-pc-linux-gnu"

@.str = private unnamed_addr constant [3 x i8] c"%d\00", align 1
@.str.1 = private unnamed_addr constant [7 x i8] c"%d%d%d\00", align 1
@.str.2 = private unnamed_addr constant [19 x i8] c"%d %d\0A%d %d\0A%d %d\0A\00", align 1

; Function Attrs: noinline nounwind uwtable
define dso_local i32 @main(i32 %0, i8** %1) #0 {
  %3 = alloca i32, align 4
  %4 = alloca i32, align 4
  %5 = alloca i8**, align 8
  %6 = alloca i32, align 4
  %7 = alloca i32, align 4
  %8 = alloca i32, align 4
  %9 = alloca i32, align 4
  %10 = alloca i32, align 4
  %11 = alloca i32, align 4
  %12 = alloca i32, align 4
  %13 = alloca i32*, align 8
  %14 = alloca i32*, align 8
  %15 = alloca i32*, align 8
  %16 = alloca i32*, align 8
  store i32 0, i32* %3, align 4
  store i32 %0, i32* %4, align 4
  store i8** %1, i8*** %5, align 8
  %17 = call i32 (i8*, ...) @__isoc99_scanf(i8* getelementptr inbounds ([3 x i8], [3 x i8]* @.str, i64 0, i64 0), i32* %6)
  %18 = load i32, i32* %6, align 4
  %19 = sext i32 %18 to i64
  %20 = mul i64 4, %19
  %21 = call noalias i8* @malloc(i64 %20) #3
  %22 = bitcast i8* %21 to i32*
  store i32* %22, i32** %13, align 8
  %23 = load i32, i32* %6, align 4
  %24 = sext i32 %23 to i64
  %25 = mul i64 4, %24
  %26 = call noalias i8* @malloc(i64 %25) #3
  %27 = bitcast i8* %26 to i32*
  store i32* %27, i32** %14, align 8
  %28 = load i32, i32* %6, align 4
  %29 = sext i32 %28 to i64
  %30 = mul i64 4, %29
  %31 = call noalias i8* @malloc(i64 %30) #3
  %32 = bitcast i8* %31 to i32*
  store i32* %32, i32** %15, align 8
  %33 = load i32, i32* %6, align 4
  %34 = sext i32 %33 to i64
  %35 = mul i64 4, %34
  %36 = call noalias i8* @malloc(i64 %35) #3
  %37 = bitcast i8* %36 to i32*
  store i32* %37, i32** %16, align 8
  store i32 1, i32* %7, align 4
  br label %38

38:                                               ; preds = %71, %2
  %39 = load i32, i32* %7, align 4
  %40 = load i32, i32* %6, align 4
  %41 = icmp sle i32 %39, %40
  br i1 %41, label %42, label %74

42:                                               ; preds = %38
  %43 = load i32*, i32** %16, align 8
  %44 = load i32, i32* %7, align 4
  %45 = sext i32 %44 to i64
  %46 = getelementptr inbounds i32, i32* %43, i64 %45
  %47 = load i32*, i32** %13, align 8
  %48 = load i32, i32* %7, align 4
  %49 = sext i32 %48 to i64
  %50 = getelementptr inbounds i32, i32* %47, i64 %49
  %51 = load i32*, i32** %14, align 8
  %52 = load i32, i32* %7, align 4
  %53 = sext i32 %52 to i64
  %54 = getelementptr inbounds i32, i32* %51, i64 %53
  %55 = call i32 (i8*, ...) @__isoc99_scanf(i8* getelementptr inbounds ([7 x i8], [7 x i8]* @.str.1, i64 0, i64 0), i32* %46, i32* %50, i32* %54)
  %56 = load i32*, i32** %13, align 8
  %57 = load i32, i32* %7, align 4
  %58 = sext i32 %57 to i64
  %59 = getelementptr inbounds i32, i32* %56, i64 %58
  %60 = load i32, i32* %59, align 4
  %61 = load i32*, i32** %14, align 8
  %62 = load i32, i32* %7, align 4
  %63 = sext i32 %62 to i64
  %64 = getelementptr inbounds i32, i32* %61, i64 %63
  %65 = load i32, i32* %64, align 4
  %66 = add nsw i32 %60, %65
  %67 = load i32*, i32** %15, align 8
  %68 = load i32, i32* %7, align 4
  %69 = sext i32 %68 to i64
  %70 = getelementptr inbounds i32, i32* %67, i64 %69
  store i32 %66, i32* %70, align 4
  br label %71

71:                                               ; preds = %42
  %72 = load i32, i32* %7, align 4
  %73 = add nsw i32 %72, 1
  store i32 %73, i32* %7, align 4
  br label %38

74:                                               ; preds = %38
  store i32 0, i32* %8, align 4
  br label %75

75:                                               ; preds = %186, %74
  %76 = load i32, i32* %8, align 4
  %77 = icmp slt i32 %76, 3
  br i1 %77, label %78, label %189

78:                                               ; preds = %75
  %79 = load i32, i32* %6, align 4
  store i32 %79, i32* %7, align 4
  br label %80

80:                                               ; preds = %182, %78
  %81 = load i32, i32* %7, align 4
  %82 = icmp sgt i32 %81, 1
  br i1 %82, label %83, label %185

83:                                               ; preds = %80
  %84 = load i32*, i32** %15, align 8
  %85 = load i32, i32* %7, align 4
  %86 = sext i32 %85 to i64
  %87 = getelementptr inbounds i32, i32* %84, i64 %86
  %88 = load i32, i32* %87, align 4
  %89 = load i32*, i32** %15, align 8
  %90 = load i32, i32* %7, align 4
  %91 = sub nsw i32 %90, 1
  %92 = sext i32 %91 to i64
  %93 = getelementptr inbounds i32, i32* %89, i64 %92
  %94 = load i32, i32* %93, align 4
  %95 = icmp sgt i32 %88, %94
  br i1 %95, label %96, label %181

96:                                               ; preds = %83
  %97 = load i32*, i32** %13, align 8
  %98 = load i32, i32* %7, align 4
  %99 = sub nsw i32 %98, 1
  %100 = sext i32 %99 to i64
  %101 = getelementptr inbounds i32, i32* %97, i64 %100
  %102 = load i32, i32* %101, align 4
  store i32 %102, i32* %9, align 4
  %103 = load i32*, i32** %14, align 8
  %104 = load i32, i32* %7, align 4
  %105 = sub nsw i32 %104, 1
  %106 = sext i32 %105 to i64
  %107 = getelementptr inbounds i32, i32* %103, i64 %106
  %108 = load i32, i32* %107, align 4
  store i32 %108, i32* %10, align 4
  %109 = load i32*, i32** %15, align 8
  %110 = load i32, i32* %7, align 4
  %111 = sub nsw i32 %110, 1
  %112 = sext i32 %111 to i64
  %113 = getelementptr inbounds i32, i32* %109, i64 %112
  %114 = load i32, i32* %113, align 4
  store i32 %114, i32* %11, align 4
  %115 = load i32*, i32** %16, align 8
  %116 = load i32, i32* %7, align 4
  %117 = sub nsw i32 %116, 1
  %118 = sext i32 %117 to i64
  %119 = getelementptr inbounds i32, i32* %115, i64 %118
  %120 = load i32, i32* %119, align 4
  store i32 %120, i32* %12, align 4
  %121 = load i32*, i32** %13, align 8
  %122 = load i32, i32* %7, align 4
  %123 = sext i32 %122 to i64
  %124 = getelementptr inbounds i32, i32* %121, i64 %123
  %125 = load i32, i32* %124, align 4
  %126 = load i32*, i32** %13, align 8
  %127 = load i32, i32* %7, align 4
  %128 = sub nsw i32 %127, 1
  %129 = sext i32 %128 to i64
  %130 = getelementptr inbounds i32, i32* %126, i64 %129
  store i32 %125, i32* %130, align 4
  %131 = load i32*, i32** %14, align 8
  %132 = load i32, i32* %7, align 4
  %133 = sext i32 %132 to i64
  %134 = getelementptr inbounds i32, i32* %131, i64 %133
  %135 = load i32, i32* %134, align 4
  %136 = load i32*, i32** %14, align 8
  %137 = load i32, i32* %7, align 4
  %138 = sub nsw i32 %137, 1
  %139 = sext i32 %138 to i64
  %140 = getelementptr inbounds i32, i32* %136, i64 %139
  store i32 %135, i32* %140, align 4
  %141 = load i32*, i32** %15, align 8
  %142 = load i32, i32* %7, align 4
  %143 = sext i32 %142 to i64
  %144 = getelementptr inbounds i32, i32* %141, i64 %143
  %145 = load i32, i32* %144, align 4
  %146 = load i32*, i32** %15, align 8
  %147 = load i32, i32* %7, align 4
  %148 = sub nsw i32 %147, 1
  %149 = sext i32 %148 to i64
  %150 = getelementptr inbounds i32, i32* %146, i64 %149
  store i32 %145, i32* %150, align 4
  %151 = load i32*, i32** %16, align 8
  %152 = load i32, i32* %7, align 4
  %153 = sext i32 %152 to i64
  %154 = getelementptr inbounds i32, i32* %151, i64 %153
  %155 = load i32, i32* %154, align 4
  %156 = load i32*, i32** %16, align 8
  %157 = load i32, i32* %7, align 4
  %158 = sub nsw i32 %157, 1
  %159 = sext i32 %158 to i64
  %160 = getelementptr inbounds i32, i32* %156, i64 %159
  store i32 %155, i32* %160, align 4
  %161 = load i32, i32* %9, align 4
  %162 = load i32*, i32** %13, align 8
  %163 = load i32, i32* %7, align 4
  %164 = sext i32 %163 to i64
  %165 = getelementptr inbounds i32, i32* %162, i64 %164
  store i32 %161, i32* %165, align 4
  %166 = load i32, i32* %10, align 4
  %167 = load i32*, i32** %14, align 8
  %168 = load i32, i32* %7, align 4
  %169 = sext i32 %168 to i64
  %170 = getelementptr inbounds i32, i32* %167, i64 %169
  store i32 %166, i32* %170, align 4
  %171 = load i32, i32* %11, align 4
  %172 = load i32*, i32** %15, align 8
  %173 = load i32, i32* %7, align 4
  %174 = sext i32 %173 to i64
  %175 = getelementptr inbounds i32, i32* %172, i64 %174
  store i32 %171, i32* %175, align 4
  %176 = load i32, i32* %12, align 4
  %177 = load i32*, i32** %16, align 8
  %178 = load i32, i32* %7, align 4
  %179 = sext i32 %178 to i64
  %180 = getelementptr inbounds i32, i32* %177, i64 %179
  store i32 %176, i32* %180, align 4
  br label %181

181:                                              ; preds = %96, %83
  br label %182

182:                                              ; preds = %181
  %183 = load i32, i32* %7, align 4
  %184 = add nsw i32 %183, -1
  store i32 %184, i32* %7, align 4
  br label %80

185:                                              ; preds = %80
  br label %186

186:                                              ; preds = %185
  %187 = load i32, i32* %8, align 4
  %188 = add nsw i32 %187, 1
  store i32 %188, i32* %8, align 4
  br label %75

189:                                              ; preds = %75
  %190 = load i32*, i32** %16, align 8
  %191 = getelementptr inbounds i32, i32* %190, i64 1
  %192 = load i32, i32* %191, align 4
  %193 = load i32*, i32** %15, align 8
  %194 = getelementptr inbounds i32, i32* %193, i64 1
  %195 = load i32, i32* %194, align 4
  %196 = load i32*, i32** %16, align 8
  %197 = getelementptr inbounds i32, i32* %196, i64 2
  %198 = load i32, i32* %197, align 4
  %199 = load i32*, i32** %15, align 8
  %200 = getelementptr inbounds i32, i32* %199, i64 2
  %201 = load i32, i32* %200, align 4
  %202 = load i32*, i32** %16, align 8
  %203 = getelementptr inbounds i32, i32* %202, i64 3
  %204 = load i32, i32* %203, align 4
  %205 = load i32*, i32** %15, align 8
  %206 = getelementptr inbounds i32, i32* %205, i64 3
  %207 = load i32, i32* %206, align 4
  %208 = call i32 (i8*, ...) @printf(i8* getelementptr inbounds ([19 x i8], [19 x i8]* @.str.2, i64 0, i64 0), i32 %192, i32 %195, i32 %198, i32 %201, i32 %204, i32 %207)
  ret i32 0
}

declare dso_local i32 @__isoc99_scanf(i8*, ...) #1

; Function Attrs: nounwind
declare dso_local noalias i8* @malloc(i64) #2

declare dso_local i32 @printf(i8*, ...) #1


!llvm.module.flags = !{!0}
!llvm.ident = !{!1}

!0 = !{i32 1, !"wchar_size", i32 4}
!1 = !{!"clang version 10.0.0-4ubuntu1 "}
